target datalayout = "e-m:e-p270:32:32-p271:32:32-p272:64:64-i64:64-i128:128-f80:128-n8:16:32:64-S128"
target triple = "x86_64-pc-linux-gnu"

%"class.icu_77::IteratedChar" = type <{ i32, i32, i32, i8, i8, [2 x i8] }>
%"class.icu_77::InputText" = type <{ ptr, i32, [4 x i8], ptr, i8, [7 x i8], ptr, ptr, i32, [4 x i8] }>

; Function Attrs: mustprogress nounwind uwtable
define noundef i32 @_ZN6icu_7712IteratedChar8nextByteEPNS_9InputTextE(ptr noundef nonnull align 4 dereferenceable(14) %0, ptr noundef %1) #0 align 2 {
  %3 = alloca i32, align 4
  %4 = alloca ptr, align 8
  %5 = alloca ptr, align 8
  store ptr %0, ptr %4, align 8, !tbaa !3
  store ptr %1, ptr %5, align 8, !tbaa !15
  %6 = load ptr, ptr %4, align 8
  %7 = getelementptr inbounds nuw %"class.icu_77::IteratedChar", ptr %6, i32 0, i32 2
  %8 = load i32, ptr %7, align 4, !tbaa !12
  %9 = load ptr, ptr %5, align 8, !tbaa !15
  %10 = getelementptr inbounds nuw %"class.icu_77::InputText", ptr %9, i32 0, i32 8
  %11 = load i32, ptr %10, align 8, !tbaa !17
  %12 = icmp sge i32 %8, %11
  br i1 %12, label %13, label %15

13:                                               ; preds = %2
  %14 = getelementptr inbounds nuw %"class.icu_77::IteratedChar", ptr %6, i32 0, i32 4
  store i8 1, ptr %14, align 1, !tbaa !14
  store i32 -1, ptr %3, align 4
  br label %26

15:                                               ; preds = %2
  %16 = load ptr, ptr %5, align 8, !tbaa !15
  %17 = getelementptr inbounds nuw %"class.icu_77::InputText", ptr %16, i32 0, i32 7
  %18 = load ptr, ptr %17, align 8, !tbaa !21
  %19 = getelementptr inbounds nuw %"class.icu_77::IteratedChar", ptr %6, i32 0, i32 2
  %20 = load i32, ptr %19, align 4, !tbaa !12
  %21 = add nsw i32 %20, 1
  store i32 %21, ptr %19, align 4, !tbaa !12
  %22 = sext i32 %20 to i64
  %23 = getelementptr inbounds i8, ptr %18, i64 %22
  %24 = load i8, ptr %23, align 1, !tbaa !22
  %25 = zext i8 %24 to i32
  store i32 %25, ptr %3, align 4
  br label %26

26:                                               ; preds = %15, %13
  %27 = load i32, ptr %3, align 4
  ret i32 %27
}