; Function Attrs: mustprogress nofree norecurse nosync nounwind willreturn memory(read, argmem: readwrite, inaccessiblemem: none) uwtable
define noundef range(i32 -1, 256) i32 @_ZN6icu_7712IteratedChar8nextByteEPNS_9InputTextE(ptr noundef nonnull align 4 captures(none) dereferenceable(14) %0, ptr noundef readonly captures(none) %1) local_unnamed_addr #1 align 2 {
  %3 = getelementptr inbounds nuw i8, ptr %0, i64 8
  %4 = load i32, ptr %3, align 4, !tbaa !9
  %5 = getelementptr inbounds nuw i8, ptr %1, i64 48
  %6 = load i32, ptr %5, align 8, !tbaa !12
  %.not = icmp slt i32 %4, %6
  br i1 %.not, label %9, label %7

7:                                                ; preds = %2
  %8 = getelementptr inbounds nuw i8, ptr %0, i64 13
  store i8 1, ptr %8, align 1, !tbaa !11
  br label %17

9:                                                ; preds = %2
  %10 = getelementptr inbounds nuw i8, ptr %1, i64 40
  %11 = load ptr, ptr %10, align 8, !tbaa !17
  %12 = add nsw i32 %4, 1
  store i32 %12, ptr %3, align 4, !tbaa !9
  %13 = sext i32 %4 to i64
  %14 = getelementptr inbounds i8, ptr %11, i64 %13
  %15 = load i8, ptr %14, align 1, !tbaa !18
  %16 = zext i8 %15 to i32
  br label %17

17:                                               ; preds = %9, %7
  %.0 = phi i32 [ -1, %7 ], [ %16, %9 ]
  ret i32 %.0
}